target datalayout = "e-m:e-p270:32:32-p271:32:32-p272:64:64-i64:64-i128:128-f80:128-n8:16:32:64-S128"
target triple = "x86_64-pc-linux-gnu"

%"class.gmx::TextLineWrapper" = type { %"class.gmx::TextLineWrapperSettings" }
%"class.gmx::TextLineWrapperSettings" = type <{ i32, i32, i32, i8, i8, [2 x i8] }>

@.str.8 = private unnamed_addr constant [9 x i8] c"%*s%.*s\0A\00", align 1
@.str.9 = private unnamed_addr constant [1 x i8] zeroinitializer, align 1

; Function Attrs: mustprogress nounwind uwtable
define linkonce_odr void @_ZN3gmx23TextLineWrapperSettings13setLineLengthEi(ptr noundef nonnull align 4 dereferenceable(14) %0, i32 noundef %1) #5 comdat align 2 {
  %3 = alloca ptr, align 8
  %4 = alloca i32, align 4
  store ptr %0, ptr %3, align 8, !tbaa !33
  store i32 %1, ptr %4, align 4, !tbaa !11
  %5 = load ptr, ptr %3, align 8
  %6 = load i32, ptr %4, align 4, !tbaa !11
  %7 = getelementptr inbounds nuw %"class.gmx::TextLineWrapperSettings", ptr %5, i32 0, i32 0
  store i32 %6, ptr %7, align 4, !tbaa !35
  ret void
}

; Function Attrs: mustprogress nounwind uwtable
define linkonce_odr noundef nonnull align 4 dereferenceable(14) ptr @_ZN3gmx15TextLineWrapper8settingsEv(ptr noundef nonnull align 4 dereferenceable(16) %0) #5 comdat align 2 {
  %2 = alloca ptr, align 8
  store ptr %0, ptr %2, align 8, !tbaa !31
  %3 = load ptr, ptr %2, align 8
  %4 = getelementptr inbounds nuw %"class.gmx::TextLineWrapper", ptr %3, i32 0, i32 0
  ret ptr %4
}

; Function Attrs: mustprogress uwtable
define linkonce_odr void @_ZN3gmx15TextLineWrapperC2Ev(ptr noundef nonnull align 4 dereferenceable(16) %0) unnamed_addr #0 comdat align 2 {
  %2 = alloca ptr, align 8
  store ptr %0, ptr %2, align 8, !tbaa !31
  %3 = load ptr, ptr %2, align 8
  %4 = getelementptr inbounds nuw %"class.gmx::TextLineWrapper", ptr %3, i32 0, i32 0
  call void @_ZN3gmx23TextLineWrapperSettingsC1Ev(ptr noundef nonnull align 4 dereferenceable(14) %4)
  ret void
}

; Function Attrs: mustprogress uwtable
define void @_ZN3gmx8internal26printFatalErrorMessageLineEP8_IO_FILEPKci(ptr noundef %0, ptr noundef %1, i32 noundef %2) #0 {
  %4 = alloca ptr, align 8
  %5 = alloca ptr, align 8
  %6 = alloca i32, align 4
  %7 = alloca %"class.gmx::TextLineWrapper", align 4
  %8 = alloca i64, align 8
  %9 = alloca i64, align 8
  %10 = alloca i64, align 8
  %11 = alloca i32, align 4
  store ptr %0, ptr %4, align 8, !tbaa !4
  store ptr %1, ptr %5, align 8, !tbaa !9
  store i32 %2, ptr %6, align 4, !tbaa !11
  call void @llvm.lifetime.start.p0(i64 16, ptr %7) #9
  call void @_ZN3gmx15TextLineWrapperC2Ev(ptr noundef nonnull align 4 dereferenceable(16) %7)
  %12 = call noundef nonnull align 4 dereferenceable(14) ptr @_ZN3gmx15TextLineWrapper8settingsEv(ptr noundef nonnull align 4 dereferenceable(16) %7)
  %13 = load i32, ptr %6, align 4, !tbaa !11
  %14 = sub nsw i32 78, %13
  call void @_ZN3gmx23TextLineWrapperSettings13setLineLengthEi(ptr noundef nonnull align 4 dereferenceable(14) %12, i32 noundef %14)
  call void @llvm.lifetime.start.p0(i64 8, ptr %8) #9
  store i64 0, ptr %8, align 8, !tbaa !25
  call void @llvm.lifetime.start.p0(i64 8, ptr %9) #9
  %15 = load ptr, ptr %5, align 8, !tbaa !9
  %16 = call i64 @strlen(ptr noundef %15) #12
  store i64 %16, ptr %9, align 8, !tbaa !25
  br label %17

17:                                               ; preds = %49, %3
  %18 = load i64, ptr %8, align 8, !tbaa !25
  %19 = load i64, ptr %9, align 8, !tbaa !25
  %20 = icmp ult i64 %18, %19
  br i1 %20, label %21, label %58

21:                                               ; preds = %17
  call void @llvm.lifetime.start.p0(i64 8, ptr %10) #9
  %22 = load ptr, ptr %5, align 8, !tbaa !9
  %23 = load i64, ptr %8, align 8, !tbaa !25
  %24 = call noundef i64 @_ZNK3gmx15TextLineWrapper12findNextLineEPKcm(ptr noundef nonnull align 4 dereferenceable(16) %7, ptr noundef %22, i64 noundef %23)
  store i64 %24, ptr %10, align 8, !tbaa !25
  call void @llvm.lifetime.start.p0(i64 4, ptr %11) #9
  %25 = load i64, ptr %10, align 8, !tbaa !25
  %26 = load i64, ptr %8, align 8, !tbaa !25
  %27 = sub i64 %25, %26
  %28 = trunc i64 %27 to i32
  store i32 %28, ptr %11, align 4, !tbaa !11
  br label %29

29:                                               ; preds = %46, %21
  %30 = load i32, ptr %11, align 4, !tbaa !11
  %31 = icmp sgt i32 %30, 0
  br i1 %31, label %32, label %44

32:                                               ; preds = %29
  %33 = load ptr, ptr %5, align 8, !tbaa !9
  %34 = load i64, ptr %8, align 8, !tbaa !25
  %35 = load i32, ptr %11, align 4, !tbaa !11
  %36 = sext i32 %35 to i64
  %37 = add i64 %34, %36
  %38 = sub i64 %37, 1
  %39 = getelementptr inbounds nuw i8, ptr %33, i64 %38
  %40 = load i8, ptr %39, align 1, !tbaa !21
  %41 = sext i8 %40 to i32
  %42 = call i32 @isspace(i32 noundef %41) #12
  %43 = icmp ne i32 %42, 0
  br label %44

44:                                               ; preds = %32, %29
  %45 = phi i1 [ false, %29 ], [ %43, %32 ]
  br i1 %45, label %46, label %49

46:                                               ; preds = %44
  %47 = load i32, ptr %11, align 4, !tbaa !11
  %48 = add nsw i32 %47, -1
  store i32 %48, ptr %11, align 4, !tbaa !11
  br label %29, !llvm.loop !28

49:                                               ; preds = %44
  %50 = load ptr, ptr %4, align 8, !tbaa !4
  %51 = load i32, ptr %6, align 4, !tbaa !11
  %52 = load i32, ptr %11, align 4, !tbaa !11
  %53 = load ptr, ptr %5, align 8, !tbaa !9
  %54 = load i64, ptr %8, align 8, !tbaa !25
  %55 = getelementptr inbounds nuw i8, ptr %53, i64 %54
  %56 = call i32 (ptr, ptr, ...) @fprintf(ptr noundef %50, ptr noundef @.str.8, i32 noundef %51, ptr noundef @.str.9, i32 noundef %52, ptr noundef %55) #9
  %57 = load i64, ptr %10, align 8, !tbaa !25
  store i64 %57, ptr %8, align 8, !tbaa !25
  call void @llvm.lifetime.end.p0(i64 4, ptr %11) #9
  call void @llvm.lifetime.end.p0(i64 8, ptr %10) #9
  br label %17, !llvm.loop !30

58:                                               ; preds = %17
  call void @llvm.lifetime.end.p0(i64 8, ptr %9) #9
  call void @llvm.lifetime.end.p0(i64 8, ptr %8) #9
  call void @llvm.lifetime.end.p0(i64 16, ptr %7) #9
  ret void
}